; ModuleID = '23/814.c'
source_filename = "23/814.c"
target datalayout = "e-m:e-p270:32:32-p271:32:32-p272:64:64-i64:64-f80:128-n8:16:32:64-S128"
target triple = "x86_64-pc-linux-gnu"

@.str = private unnamed_addr constant [4 x i8] c"%s \00", align 1
@.str.1 = private unnamed_addr constant [3 x i8] c"%s\00", align 1

; Function Attrs: noinline nounwind uwtable
define dso_local i32 @main() #0 {
  %1 = alloca i32, align 4
  %2 = alloca [101 x i8], align 16
  %3 = alloca [101 x i8], align 16
  %4 = alloca i32, align 4
  %5 = alloca i32, align 4
  %6 = alloca i32, align 4
  %7 = alloca i32, align 4
  store i32 0, i32* %1, align 4
  store i32 0, i32* %5, align 4
  br label %8

8:                                                ; preds = %15, %0
  %9 = load i32, i32* %5, align 4
  %10 = icmp slt i32 %9, 101
  br i1 %10, label %11, label %18

11:                                               ; preds = %8
  %12 = load i32, i32* %5, align 4
  %13 = sext i32 %12 to i64
  %14 = getelementptr inbounds [101 x i8], [101 x i8]* %2, i64 0, i64 %13
  store i8 0, i8* %14, align 1
  br label %15

15:                                               ; preds = %11
  %16 = load i32, i32* %5, align 4
  %17 = add nsw i32 %16, 1
  store i32 %17, i32* %5, align 4
  br label %8

18:                                               ; preds = %8
  %19 = getelementptr inbounds [101 x i8], [101 x i8]* %2, i64 0, i64 0
  %20 = call i32 (i8*, ...) bitcast (i32 (...)* @gets to i32 (i8*, ...)*)(i8* %19)
  %21 = getelementptr inbounds [101 x i8], [101 x i8]* %2, i64 0, i64 0
  %22 = call i64 @strlen(i8* %21) #3
  %23 = sub i64 %22, 1
  %24 = trunc i64 %23 to i32
  store i32 %24, i32* %7, align 4
  %25 = getelementptr inbounds [101 x i8], [101 x i8]* %2, i64 0, i64 0
  %26 = call i64 @strlen(i8* %25) #3
  %27 = sub i64 %26, 1
  %28 = trunc i64 %27 to i32
  store i32 %28, i32* %4, align 4
  br label %29

29:                                               ; preds = %111, %18
  %30 = load i32, i32* %4, align 4
  %31 = icmp sge i32 %30, 0
  br i1 %31, label %32, label %114

32:                                               ; preds = %29
  %33 = load i32, i32* %4, align 4
  %34 = sext i32 %33 to i64
  %35 = getelementptr inbounds [101 x i8], [101 x i8]* %2, i64 0, i64 %34
  %36 = load i8, i8* %35, align 1
  %37 = sext i8 %36 to i32
  %38 = icmp eq i32 %37, 32
  br i1 %38, label %39, label %76

39:                                               ; preds = %32
  store i32 0, i32* %5, align 4
  br label %40

40:                                               ; preds = %47, %39
  %41 = load i32, i32* %5, align 4
  %42 = icmp slt i32 %41, 101
  br i1 %42, label %43, label %50

43:                                               ; preds = %40
  %44 = load i32, i32* %5, align 4
  %45 = sext i32 %44 to i64
  %46 = getelementptr inbounds [101 x i8], [101 x i8]* %3, i64 0, i64 %45
  store i8 0, i8* %46, align 1
  br label %47

47:                                               ; preds = %43
  %48 = load i32, i32* %5, align 4
  %49 = add nsw i32 %48, 1
  store i32 %49, i32* %5, align 4
  br label %40

50:                                               ; preds = %40
  store i32 0, i32* %6, align 4
  br label %51

51:                                               ; preds = %68, %50
  %52 = load i32, i32* %6, align 4
  %53 = load i32, i32* %7, align 4
  %54 = load i32, i32* %4, align 4
  %55 = sub nsw i32 %53, %54
  %56 = icmp slt i32 %52, %55
  br i1 %56, label %57, label %71

57:                                               ; preds = %51
  %58 = load i32, i32* %4, align 4
  %59 = add nsw i32 %58, 1
  %60 = load i32, i32* %6, align 4
  %61 = add nsw i32 %59, %60
  %62 = sext i32 %61 to i64
  %63 = getelementptr inbounds [101 x i8], [101 x i8]* %2, i64 0, i64 %62
  %64 = load i8, i8* %63, align 1
  %65 = load i32, i32* %6, align 4
  %66 = sext i32 %65 to i64
  %67 = getelementptr inbounds [101 x i8], [101 x i8]* %3, i64 0, i64 %66
  store i8 %64, i8* %67, align 1
  br label %68

68:                                               ; preds = %57
  %69 = load i32, i32* %6, align 4
  %70 = add nsw i32 %69, 1
  store i32 %70, i32* %6, align 4
  br label %51

71:                                               ; preds = %51
  %72 = getelementptr inbounds [101 x i8], [101 x i8]* %3, i64 0, i64 0
  %73 = call i32 (i8*, ...) @printf(i8* getelementptr inbounds ([4 x i8], [4 x i8]* @.str, i64 0, i64 0), i8* %72)
  %74 = load i32, i32* %4, align 4
  %75 = sub nsw i32 %74, 1
  store i32 %75, i32* %7, align 4
  br label %110

76:                                               ; preds = %32
  %77 = load i32, i32* %4, align 4
  %78 = icmp eq i32 %77, 0
  br i1 %78, label %79, label %109

79:                                               ; preds = %76
  store i32 0, i32* %5, align 4
  br label %80

80:                                               ; preds = %87, %79
  %81 = load i32, i32* %5, align 4
  %82 = icmp slt i32 %81, 101
  br i1 %82, label %83, label %90

83:                                               ; preds = %80
  %84 = load i32, i32* %5, align 4
  %85 = sext i32 %84 to i64
  %86 = getelementptr inbounds [101 x i8], [101 x i8]* %3, i64 0, i64 %85
  store i8 0, i8* %86, align 1
  br label %87

87:                                               ; preds = %83
  %88 = load i32, i32* %5, align 4
  %89 = add nsw i32 %88, 1
  store i32 %89, i32* %5, align 4
  br label %80

90:                                               ; preds = %80
  store i32 0, i32* %6, align 4
  br label %91

91:                                               ; preds = %103, %90
  %92 = load i32, i32* %6, align 4
  %93 = load i32, i32* %7, align 4
  %94 = icmp sle i32 %92, %93
  br i1 %94, label %95, label %106

95:                                               ; preds = %91
  %96 = load i32, i32* %6, align 4
  %97 = sext i32 %96 to i64
  %98 = getelementptr inbounds [101 x i8], [101 x i8]* %2, i64 0, i64 %97
  %99 = load i8, i8* %98, align 1
  %100 = load i32, i32* %6, align 4
  %101 = sext i32 %100 to i64
  %102 = getelementptr inbounds [101 x i8], [101 x i8]* %3, i64 0, i64 %101
  store i8 %99, i8* %102, align 1
  br label %103

103:                                              ; preds = %95
  %104 = load i32, i32* %6, align 4
  %105 = add nsw i32 %104, 1
  store i32 %105, i32* %6, align 4
  br label %91

106:                                              ; preds = %91
  %107 = getelementptr inbounds [101 x i8], [101 x i8]* %3, i64 0, i64 0
  %108 = call i32 (i8*, ...) @printf(i8* getelementptr inbounds ([3 x i8], [3 x i8]* @.str.1, i64 0, i64 0), i8* %107)
  br label %109

109:                                              ; preds = %106, %76
  br label %110

110:                                              ; preds = %109, %71
  br label %111

111:                                              ; preds = %110
  %112 = load i32, i32* %4, align 4
  %113 = add nsw i32 %112, -1
  store i32 %113, i32* %4, align 4
  br label %29

114:                                              ; preds = %29
  %115 = load i32, i32* %1, align 4
  ret i32 %115
}

declare dso_local i32 @gets(...) #1

; Function Attrs: nounwind readonly
declare dso_local i64 @strlen(i8*) #2

declare dso_local i32 @printf(i8*, ...) #1


!llvm.module.flags = !{!0}
!llvm.ident = !{!1}

!0 = !{i32 1, !"wchar_size", i32 4}
!1 = !{!"clang version 10.0.0-4ubuntu1 "}
